; Function Attrs: mustprogress uwtable
define dso_local void @_ZN7V3Graph13loopsVertexCbEP13V3GraphVertex(ptr nonnull readnone align 8 captures(none) %0, ptr noundef %1) unnamed_addr #4 align 2 personality ptr @__gxx_personality_v0 {
  %3 = alloca %"class.std::__cxx11::basic_string", align 8
  %4 = tail call noundef i32 @_ZL5debugv()
  %.not = icmp eq i32 %4, 0
  br i1 %.not, label %49, label %5

5:                                                ; preds = %2
  %6 = tail call noundef nonnull align 8 dereferenceable(8) ptr @_ZSt16__ostream_insertIcSt11char_traitsIcEERSt13basic_ostreamIT_T0_ES6_PKS3_l(ptr noundef nonnull align 8 dereferenceable(8) @_ZSt4cerr, ptr noundef nonnull @.str.11, i64 noundef 12)
  call void @llvm.lifetime.start.p0(i64 32, ptr nonnull %3) #27
  call void @_Z8cvtToHexIP13V3GraphVertexENSt9enable_ifIXsr3std10is_pointerIT_EE5valueENSt7__cxx1112basic_stringIcSt11char_traitsIcESaIcEEEE4typeES3_(ptr dead_on_unwind nonnull writable sret(%"class.std::__cxx11::basic_string") align 8 %3, ptr noundef %1)
  %7 = load ptr, ptr %3, align 8, !tbaa !66
  %8 = getelementptr inbounds nuw i8, ptr %3, i64 8
  %9 = load i64, ptr %8, align 8, !tbaa !58
  %10 = invoke noundef nonnull align 8 dereferenceable(8) ptr @_ZSt16__ostream_insertIcSt11char_traitsIcEERSt13basic_ostreamIT_T0_ES6_PKS3_l(ptr noundef nonnull align 8 dereferenceable(8) @_ZSt4cerr, ptr noundef %7, i64 noundef %9)
          to label %_ZStlsIcSt11char_traitsIcESaIcEERSt13basic_ostreamIT_T0_ES7_RKNSt7__cxx1112basic_stringIS4_S5_T1_EE.exit unwind label %40

_ZStlsIcSt11char_traitsIcESaIcEERSt13basic_ostreamIT_T0_ES7_RKNSt7__cxx1112basic_stringIS4_S5_T1_EE.exit: ; preds = %5
  %11 = invoke noundef nonnull align 8 dereferenceable(8) ptr @_ZSt16__ostream_insertIcSt11char_traitsIcEERSt13basic_ostreamIT_T0_ES6_PKS3_l(ptr noundef nonnull align 8 dereferenceable(8) %10, ptr noundef nonnull @.str.12, i64 noundef 1)
          to label %_ZStlsISt11char_traitsIcEERSt13basic_ostreamIcT_ES5_PKc.exit unwind label %40

_ZStlsISt11char_traitsIcEERSt13basic_ostreamIcT_ES5_PKc.exit: ; preds = %_ZStlsIcSt11char_traitsIcESaIcEERSt13basic_ostreamIT_T0_ES7_RKNSt7__cxx1112basic_stringIS4_S5_T1_EE.exit
  %12 = invoke noundef nonnull align 8 dereferenceable(8) ptr @_ZlsRSoP13V3GraphVertex(ptr noundef nonnull align 8 dereferenceable(8) %10, ptr noundef %1)
          to label %13 unwind label %40

13:                                               ; preds = %_ZStlsISt11char_traitsIcEERSt13basic_ostreamIcT_ES5_PKc.exit
  %14 = load ptr, ptr %10, align 8, !tbaa !4
  %15 = getelementptr i8, ptr %14, i64 -24
  %16 = load i64, ptr %15, align 8
  %17 = getelementptr inbounds i8, ptr %10, i64 %16
  %18 = getelementptr inbounds nuw i8, ptr %17, i64 240
  %19 = load ptr, ptr %18, align 8, !tbaa !67
  %.not.i.i.i = icmp eq ptr %19, null
  br i1 %.not.i.i.i, label %20, label %_ZSt13__check_facetISt5ctypeIcEERKT_PS3_.exit.i.i

20:                                               ; preds = %13
  invoke void @_ZSt16__throw_bad_castv() #29
          to label %.noexc unwind label %40

.noexc:                                           ; preds = %20
  unreachable

_ZSt13__check_facetISt5ctypeIcEERKT_PS3_.exit.i.i: ; preds = %13
  %21 = getelementptr inbounds nuw i8, ptr %19, i64 56
  %22 = load i8, ptr %21, align 8, !tbaa !80
  %.not.i1.i.i = icmp eq i8 %22, 0
  br i1 %.not.i1.i.i, label %26, label %23

23:                                               ; preds = %_ZSt13__check_facetISt5ctypeIcEERKT_PS3_.exit.i.i
  %24 = getelementptr inbounds nuw i8, ptr %19, i64 67
  %25 = load i8, ptr %24, align 1, !tbaa !20
  br label %_ZNKSt9basic_iosIcSt11char_traitsIcEE5widenEc.exit.i

26:                                               ; preds = %_ZSt13__check_facetISt5ctypeIcEERKT_PS3_.exit.i.i
  invoke void @_ZNKSt5ctypeIcE13_M_widen_initEv(ptr noundef nonnull align 8 dereferenceable(570) %19)
          to label %.noexc6 unwind label %40

.noexc6:                                          ; preds = %26
  %27 = load ptr, ptr %19, align 8, !tbaa !4
  %28 = getelementptr inbounds nuw i8, ptr %27, i64 48
  %29 = load ptr, ptr %28, align 8
  %30 = invoke noundef signext i8 %29(ptr noundef nonnull align 8 dereferenceable(570) %19, i8 noundef signext 10)
          to label %_ZNKSt9basic_iosIcSt11char_traitsIcEE5widenEc.exit.i unwind label %40

_ZNKSt9basic_iosIcSt11char_traitsIcEE5widenEc.exit.i: ; preds = %.noexc6, %23
  %.0.i.i.i = phi i8 [ %25, %23 ], [ %30, %.noexc6 ]
  %31 = invoke noundef nonnull align 8 dereferenceable(8) ptr @_ZNSo3putEc(ptr noundef nonnull align 8 dereferenceable(8) %10, i8 noundef signext %.0.i.i.i)
          to label %.noexc8 unwind label %40

.noexc8:                                          ; preds = %_ZNKSt9basic_iosIcSt11char_traitsIcEE5widenEc.exit.i
  %32 = invoke noundef nonnull align 8 dereferenceable(8) ptr @_ZNSo5flushEv(ptr noundef nonnull align 8 dereferenceable(8) %31)
          to label %_ZNSolsEPFRSoS_E.exit unwind label %40

_ZNSolsEPFRSoS_E.exit:                            ; preds = %.noexc8
  %33 = load ptr, ptr %3, align 8, !tbaa !66
  %34 = getelementptr inbounds nuw i8, ptr %3, i64 16
  %35 = icmp eq ptr %33, %34
  br i1 %35, label %_ZNKSt7__cxx1112basic_stringIcSt11char_traitsIcESaIcEE11_M_is_localEv.exit.thread.i.i, label %_ZNKSt7__cxx1112basic_stringIcSt11char_traitsIcESaIcEE11_M_is_localEv.exit.i.i

_ZNKSt7__cxx1112basic_stringIcSt11char_traitsIcESaIcEE11_M_is_localEv.exit.thread.i.i: ; preds = %_ZNSolsEPFRSoS_E.exit
  %36 = load i64, ptr %8, align 8, !tbaa !58
  %37 = icmp ult i64 %36, 16
  call void @llvm.assume(i1 %37)
  br label %_ZNSt7__cxx1112basic_stringIcSt11char_traitsIcESaIcEED2Ev.exit

_ZNKSt7__cxx1112basic_stringIcSt11char_traitsIcESaIcEE11_M_is_localEv.exit.i.i: ; preds = %_ZNSolsEPFRSoS_E.exit
  %38 = load i64, ptr %34, align 8, !tbaa !20
  %39 = add i64 %38, 1
  call void @_ZdlPvm(ptr noundef %33, i64 noundef %39) #30
  br label %_ZNSt7__cxx1112basic_stringIcSt11char_traitsIcESaIcEED2Ev.exit

_ZNSt7__cxx1112basic_stringIcSt11char_traitsIcESaIcEED2Ev.exit: ; preds = %_ZNKSt7__cxx1112basic_stringIcSt11char_traitsIcESaIcEE11_M_is_localEv.exit.thread.i.i, %_ZNKSt7__cxx1112basic_stringIcSt11char_traitsIcESaIcEE11_M_is_localEv.exit.i.i
  call void @llvm.lifetime.end.p0(i64 32, ptr nonnull %3) #27
  br label %49

40:                                               ; preds = %.noexc8, %_ZNKSt9basic_iosIcSt11char_traitsIcEE5widenEc.exit.i, %.noexc6, %26, %20, %_ZStlsIcSt11char_traitsIcESaIcEERSt13basic_ostreamIT_T0_ES7_RKNSt7__cxx1112basic_stringIS4_S5_T1_EE.exit, %5, %_ZStlsISt11char_traitsIcEERSt13basic_ostreamIcT_ES5_PKc.exit
  %41 = landingpad { ptr, i32 }
          cleanup
  %42 = load ptr, ptr %3, align 8, !tbaa !66
  %43 = getelementptr inbounds nuw i8, ptr %3, i64 16
  %44 = icmp eq ptr %42, %43
  br i1 %44, label %_ZNKSt7__cxx1112basic_stringIcSt11char_traitsIcESaIcEE11_M_is_localEv.exit.thread.i.i4, label %_ZNKSt7__cxx1112basic_stringIcSt11char_traitsIcESaIcEE11_M_is_localEv.exit.i.i3

_ZNKSt7__cxx1112basic_stringIcSt11char_traitsIcESaIcEE11_M_is_localEv.exit.thread.i.i4: ; preds = %40
  %45 = load i64, ptr %8, align 8, !tbaa !58
  %46 = icmp ult i64 %45, 16
  call void @llvm.assume(i1 %46)
  br label %_ZNSt7__cxx1112basic_stringIcSt11char_traitsIcESaIcEED2Ev.exit5

_ZNKSt7__cxx1112basic_stringIcSt11char_traitsIcESaIcEE11_M_is_localEv.exit.i.i3: ; preds = %40
  %47 = load i64, ptr %43, align 8, !tbaa !20
  %48 = add i64 %47, 1
  call void @_ZdlPvm(ptr noundef %42, i64 noundef %48) #30
  br label %_ZNSt7__cxx1112basic_stringIcSt11char_traitsIcESaIcEED2Ev.exit5

_ZNSt7__cxx1112basic_stringIcSt11char_traitsIcESaIcEED2Ev.exit5: ; preds = %_ZNKSt7__cxx1112basic_stringIcSt11char_traitsIcESaIcEE11_M_is_localEv.exit.thread.i.i4, %_ZNKSt7__cxx1112basic_stringIcSt11char_traitsIcESaIcEE11_M_is_localEv.exit.i.i3
  call void @llvm.lifetime.end.p0(i64 32, ptr nonnull %3) #27
  resume { ptr, i32 } %41

49:                                               ; preds = %_ZNSt7__cxx1112basic_stringIcSt11char_traitsIcESaIcEED2Ev.exit, %2
  ret void
}